; Function Attrs: mustprogress nounwind uwtable
define hidden noundef ptr @_ZN14rorL_immI8Node12cisc_versionEi(ptr noundef nonnull align 8 dereferenceable(104) %0, i32 noundef %1) unnamed_addr #3 align 2 {
  %3 = tail call align 8 ptr @llvm.threadlocal.address.p0(ptr align 8 @_ZN6Thread12_thr_currentE)
  %4 = load ptr, ptr %3, align 8
  %5 = getelementptr inbounds i8, ptr %4, i64 1808
  %6 = load ptr, ptr %5, align 8
  %7 = getelementptr inbounds i8, ptr %6, i64 128
  %8 = load ptr, ptr %7, align 8
  %9 = getelementptr inbounds i8, ptr %8, i64 728
  %10 = load ptr, ptr %9, align 8
  %11 = getelementptr inbounds i8, ptr %10, i64 40
  %12 = load ptr, ptr %11, align 8
  %13 = getelementptr inbounds i8, ptr %10, i64 32
  %14 = load ptr, ptr %13, align 8
  %15 = ptrtoint ptr %12 to i64
  %16 = ptrtoint ptr %14 to i64
  %17 = sub i64 %15, %16
  %.not.i.i.i = icmp ult i64 %17, 96
  br i1 %.not.i.i.i, label %20, label %18

18:                                               ; preds = %2
  %19 = getelementptr inbounds i8, ptr %14, i64 96
  store ptr %19, ptr %13, align 8
  br label %_ZN4NodenwEm.exit

20:                                               ; preds = %2
  %21 = tail call noundef ptr @_ZN5Arena4growEmN17AllocFailStrategy13AllocFailEnumE(ptr noundef nonnull align 8 dereferenceable(48) %10, i64 noundef 96, i32 noundef 0) #23
  br label %_ZN4NodenwEm.exit

_ZN4NodenwEm.exit:                                ; preds = %18, %20
  %.0.i.i.i = phi ptr [ %14, %18 ], [ %21, %20 ]
  %22 = icmp eq ptr %.0.i.i.i, null
  br i1 %22, label %32, label %23

23:                                               ; preds = %_ZN4NodenwEm.exit
  tail call void @_ZN4NodeC2Ej(ptr noundef nonnull align 8 dereferenceable(52) %.0.i.i.i, i32 noundef 0) #23
  %24 = getelementptr inbounds i8, ptr %.0.i.i.i, i64 52
  store i8 0, ptr %24, align 4
  %25 = getelementptr inbounds i8, ptr %.0.i.i.i, i64 54
  %26 = getelementptr inbounds i8, ptr %.0.i.i.i, i64 56
  %27 = getelementptr inbounds i8, ptr %.0.i.i.i, i64 44
  store i32 2, ptr %27, align 4
  store ptr getelementptr inbounds inrange(-16, 360) (i8, ptr @_ZTV18rorL_mem_immI8Node, i64 16), ptr %.0.i.i.i, align 8
  store i16 3, ptr %25, align 2
  %28 = getelementptr inbounds i8, ptr %.0.i.i.i, i64 72
  store ptr %28, ptr %26, align 8
  %29 = getelementptr inbounds i8, ptr %.0.i.i.i, i64 48
  %30 = load i32, ptr %29, align 8
  %31 = or i32 %30, 36
  store i32 %31, ptr %29, align 8
  br label %32

32:                                               ; preds = %23, %_ZN4NodenwEm.exit
  %33 = load ptr, ptr %0, align 8
  %34 = getelementptr inbounds i8, ptr %33, i64 40
  %35 = load ptr, ptr %34, align 8
  %36 = tail call noundef ptr %35(ptr noundef nonnull align 8 dereferenceable(72) %0) #23
  %37 = getelementptr inbounds i8, ptr %.0.i.i.i, i64 64
  store ptr %36, ptr %37, align 8
  tail call void @_ZNK8MachNode17fill_new_machnodeEPS_(ptr noundef nonnull align 8 dereferenceable(64) %0, ptr noundef %.0.i.i.i) #23
  %38 = load ptr, ptr %0, align 8
  %39 = getelementptr inbounds i8, ptr %38, i64 184
  %40 = load ptr, ptr %39, align 8
  %41 = tail call noundef i32 %40(ptr noundef nonnull align 8 dereferenceable(104) %0) #23
  %42 = load ptr, ptr %3, align 8
  %43 = getelementptr inbounds i8, ptr %42, i64 1808
  %44 = load ptr, ptr %43, align 8
  %45 = getelementptr inbounds i8, ptr %44, i64 128
  %46 = load ptr, ptr %45, align 8
  %47 = getelementptr inbounds i8, ptr %46, i64 728
  %48 = load ptr, ptr %47, align 8
  %49 = getelementptr inbounds i8, ptr %48, i64 40
  %50 = load ptr, ptr %49, align 8
  %51 = getelementptr inbounds i8, ptr %48, i64 32
  %52 = load ptr, ptr %51, align 8
  %53 = ptrtoint ptr %50 to i64
  %54 = ptrtoint ptr %52 to i64
  %55 = sub i64 %53, %54
  %.not.i.i.i6 = icmp ult i64 %55, 16
  br i1 %.not.i.i.i6, label %58, label %56

56:                                               ; preds = %32
  %57 = getelementptr inbounds i8, ptr %52, i64 16
  store ptr %57, ptr %51, align 8
  br label %_ZN8MachOpernwEm.exit

58:                                               ; preds = %32
  %59 = tail call noundef ptr @_ZN5Arena4growEmN17AllocFailStrategy13AllocFailEnumE(ptr noundef nonnull align 8 dereferenceable(48) %48, i64 noundef 16, i32 noundef 0) #23
  br label %_ZN8MachOpernwEm.exit

_ZN8MachOpernwEm.exit:                            ; preds = %56, %58
  %.0.i.i.i7 = phi ptr [ %52, %56 ], [ %59, %58 ]
  %60 = icmp eq ptr %.0.i.i.i7, null
  br i1 %60, label %64, label %61

61:                                               ; preds = %_ZN8MachOpernwEm.exit
  %62 = sext i32 %1 to i64
  store ptr getelementptr inbounds inrange(-16, 232) (i8, ptr @_ZTV15indOffset32Oper, i64 16), ptr %.0.i.i.i7, align 8
  %63 = getelementptr inbounds i8, ptr %.0.i.i.i7, i64 8
  store i64 %62, ptr %63, align 8
  br label %64

64:                                               ; preds = %61, %_ZN8MachOpernwEm.exit
  %65 = getelementptr inbounds i8, ptr %.0.i.i.i, i64 72
  %66 = zext i32 %41 to i64
  %67 = getelementptr inbounds [3 x ptr], ptr %65, i64 0, i64 %66
  store ptr %.0.i.i.i7, ptr %67, align 8
  ret ptr %.0.i.i.i
}